                                      1 ;--------------------------------------------------------
                                      2 ; File Created by SDCC : free open source ISO C Compiler
                                      3 ; Version 4.5.1 #15267 (MINGW64)
                                      4 ;--------------------------------------------------------
                                      5 	.module main
                                      6 	
                                      7 ;--------------------------------------------------------
                                      8 ; Public variables in this module
                                      9 ;--------------------------------------------------------
                                     10 	.globl _main
                                     11 	.globl _show_selection_menu
                                     12 	.globl _setup_dog2_sprite_selection_managed
                                     13 	.globl _clear_all_sprites
                                     14 	.globl _setup_dog2_sprite_main
                                     15 	.globl _setup_dog2_sprite_selection
                                     16 	.globl b___func_Poodle2
                                     17 	.globl ___func_Poodle2
                                     18 	.globl _set_sprite_data
                                     19 	.globl _set_bkg_tiles
                                     20 	.globl _set_bkg_data
                                     21 	.globl _selected_pet
                                     22 	.globl _CatSprite
                                     23 	.globl _PoodleSprite
                                     24 	.globl _Poodle2_map
                                     25 	.globl _Poodle2_tiles
                                     26 	.globl _Poodle2_palettes
                                     27 	.globl _setup_cat_sprite_selection
                                     28 	.globl _setup_cat_sprite_main
                                     29 ;--------------------------------------------------------
                                     30 ; special function registers
                                     31 ;--------------------------------------------------------
                                     32 ;--------------------------------------------------------
                                     33 ; ram data
                                     34 ;--------------------------------------------------------
                                     35 	.area _DATA
                                     36 ;--------------------------------------------------------
                                     37 ; ram data
                                     38 ;--------------------------------------------------------
                                     39 	.area _INITIALIZED
    00000000                         40 _PoodleSprite::
    00000000                         41 	.ds 96
    00000060                         42 _CatSprite::
    00000060                         43 	.ds 144
    000000F0                         44 _poodle_selection:
    000000F0                         45 	.ds 4
    000000F4                         46 _poodle_main:
    000000F4                         47 	.ds 4
    000000F8                         48 _selected_pet::
    000000F8                         49 	.ds 1
                                     50 ;--------------------------------------------------------
                                     51 ; absolute external ram data
                                     52 ;--------------------------------------------------------
                                     53 	.area _DABS (ABS)
                                     54 ;--------------------------------------------------------
                                     55 ; global & static initialisations
                                     56 ;--------------------------------------------------------
                                     57 	.area _HOME
                                     58 	.area _GSINIT
                                     59 	.area _GSFINAL
                                     60 	.area _GSINIT
                                     61 ;--------------------------------------------------------
                                     62 ; Home
                                     63 ;--------------------------------------------------------
                                     64 	.area _HOME
                                     65 	.area _HOME
                                     66 ;--------------------------------------------------------
                                     67 ; code
                                     68 ;--------------------------------------------------------
                                     69 	.area _CODE
                                     70 ;cat_sprite.h:12: void setup_cat_sprite_selection(void)
                                     71 ;	---------------------------------
                                     72 ; Function setup_cat_sprite_selection
                                     73 ; ---------------------------------
    00000000                         74 _setup_cat_sprite_selection::
                                     75 ;cat_sprite.h:15: set_sprite_data(6, 9, CatSprite);
    00000000 11r60r00         [12]   76 	ld	de, #_CatSprite
    00000003 D5               [16]   77 	push	de
    00000004 21 06 09         [12]   78 	ld	hl, #0x906
    00000007 E5               [16]   79 	push	hl
    00000008 CDr00r00         [24]   80 	call	_set_sprite_data
    0000000B E8 04            [16]   81 	add	sp, #4
                                     82 ;c:\gbdk\include\gb\gb.h:1887: shadow_OAM[nb].tile=tile;
    0000000D 21r1Ar00         [12]   83 	ld	hl, #(_shadow_OAM + 26)
    00000010 36 06            [12]   84 	ld	(hl), #0x06
    00000012 21r1Er00         [12]   85 	ld	hl, #(_shadow_OAM + 30)
    00000015 36 07            [12]   86 	ld	(hl), #0x07
    00000017 21r22r00         [12]   87 	ld	hl, #(_shadow_OAM + 34)
    0000001A 36 08            [12]   88 	ld	(hl), #0x08
    0000001C 21r26r00         [12]   89 	ld	hl, #(_shadow_OAM + 38)
    0000001F 36 09            [12]   90 	ld	(hl), #0x09
    00000021 21r2Ar00         [12]   91 	ld	hl, #(_shadow_OAM + 42)
    00000024 36 0A            [12]   92 	ld	(hl), #0x0a
    00000026 21r2Er00         [12]   93 	ld	hl, #(_shadow_OAM + 46)
    00000029 36 0B            [12]   94 	ld	(hl), #0x0b
    0000002B 21r32r00         [12]   95 	ld	hl, #(_shadow_OAM + 50)
    0000002E 36 0C            [12]   96 	ld	(hl), #0x0c
    00000030 21r36r00         [12]   97 	ld	hl, #(_shadow_OAM + 54)
    00000033 36 0D            [12]   98 	ld	(hl), #0x0d
    00000035 21r3Ar00         [12]   99 	ld	hl, #(_shadow_OAM + 58)
    00000038 36 0E            [12]  100 	ld	(hl), #0x0e
                                    101 ;c:\gbdk\include\gb\gb.h:1973: OAM_item_t * itm = &shadow_OAM[nb];
    0000003A 21r18r00         [12]  102 	ld	hl, #(_shadow_OAM + 24)
                                    103 ;c:\gbdk\include\gb\gb.h:1974: itm->y=y, itm->x=x;
    0000003D 3E 24            [ 8]  104 	ld	a, #0x24
    0000003F 22               [ 8]  105 	ld	(hl+), a
    00000040 36 60            [12]  106 	ld	(hl), #0x60
                                    107 ;c:\gbdk\include\gb\gb.h:1973: OAM_item_t * itm = &shadow_OAM[nb];
    00000042 21r1Cr00         [12]  108 	ld	hl, #(_shadow_OAM + 28)
                                    109 ;c:\gbdk\include\gb\gb.h:1974: itm->y=y, itm->x=x;
    00000045 3E 24            [ 8]  110 	ld	a, #0x24
    00000047 22               [ 8]  111 	ld	(hl+), a
    00000048 36 68            [12]  112 	ld	(hl), #0x68
                                    113 ;c:\gbdk\include\gb\gb.h:1973: OAM_item_t * itm = &shadow_OAM[nb];
    0000004A 21r20r00         [12]  114 	ld	hl, #(_shadow_OAM + 32)
                                    115 ;c:\gbdk\include\gb\gb.h:1974: itm->y=y, itm->x=x;
    0000004D 3E 24            [ 8]  116 	ld	a, #0x24
    0000004F 22               [ 8]  117 	ld	(hl+), a
    00000050 36 70            [12]  118 	ld	(hl), #0x70
                                    119 ;c:\gbdk\include\gb\gb.h:1973: OAM_item_t * itm = &shadow_OAM[nb];
    00000052 21r24r00         [12]  120 	ld	hl, #(_shadow_OAM + 36)
                                    121 ;c:\gbdk\include\gb\gb.h:1974: itm->y=y, itm->x=x;
    00000055 3E 2C            [ 8]  122 	ld	a, #0x2c
    00000057 22               [ 8]  123 	ld	(hl+), a
    00000058 36 60            [12]  124 	ld	(hl), #0x60
                                    125 ;c:\gbdk\include\gb\gb.h:1973: OAM_item_t * itm = &shadow_OAM[nb];
    0000005A 21r28r00         [12]  126 	ld	hl, #(_shadow_OAM + 40)
                                    127 ;c:\gbdk\include\gb\gb.h:1974: itm->y=y, itm->x=x;
    0000005D 3E 2C            [ 8]  128 	ld	a, #0x2c
    0000005F 22               [ 8]  129 	ld	(hl+), a
    00000060 36 68            [12]  130 	ld	(hl), #0x68
                                    131 ;c:\gbdk\include\gb\gb.h:1973: OAM_item_t * itm = &shadow_OAM[nb];
    00000062 21r2Cr00         [12]  132 	ld	hl, #(_shadow_OAM + 44)
                                    133 ;c:\gbdk\include\gb\gb.h:1974: itm->y=y, itm->x=x;
    00000065 3E 2C            [ 8]  134 	ld	a, #0x2c
    00000067 22               [ 8]  135 	ld	(hl+), a
    00000068 36 70            [12]  136 	ld	(hl), #0x70
                                    137 ;c:\gbdk\include\gb\gb.h:1973: OAM_item_t * itm = &shadow_OAM[nb];
    0000006A 21r30r00         [12]  138 	ld	hl, #(_shadow_OAM + 48)
                                    139 ;c:\gbdk\include\gb\gb.h:1974: itm->y=y, itm->x=x;
    0000006D 3E 34            [ 8]  140 	ld	a, #0x34
    0000006F 22               [ 8]  141 	ld	(hl+), a
    00000070 36 60            [12]  142 	ld	(hl), #0x60
                                    143 ;c:\gbdk\include\gb\gb.h:1973: OAM_item_t * itm = &shadow_OAM[nb];
    00000072 21r34r00         [12]  144 	ld	hl, #(_shadow_OAM + 52)
                                    145 ;c:\gbdk\include\gb\gb.h:1974: itm->y=y, itm->x=x;
    00000075 3E 34            [ 8]  146 	ld	a, #0x34
    00000077 22               [ 8]  147 	ld	(hl+), a
    00000078 36 68            [12]  148 	ld	(hl), #0x68
                                    149 ;c:\gbdk\include\gb\gb.h:1973: OAM_item_t * itm = &shadow_OAM[nb];
    0000007A 21r38r00         [12]  150 	ld	hl, #(_shadow_OAM + 56)
                                    151 ;c:\gbdk\include\gb\gb.h:1974: itm->y=y, itm->x=x;
    0000007D 3E 34            [ 8]  152 	ld	a, #0x34
    0000007F 22               [ 8]  153 	ld	(hl+), a
    00000080 36 70            [12]  154 	ld	(hl), #0x70
                                    155 ;cat_sprite.h:34: move_sprite(14, 112, 52); // down right
                                    156 ;cat_sprite.h:35: }
    00000082 C9               [16]  157 	ret
                                    158 ;cat_sprite.h:37: void setup_cat_sprite_main(void)
                                    159 ;	---------------------------------
                                    160 ; Function setup_cat_sprite_main
                                    161 ; ---------------------------------
    00000083                        162 _setup_cat_sprite_main::
                                    163 ;cat_sprite.h:40: set_sprite_data(0, 9, CatSprite);
    00000083 11r60r00         [12]  164 	ld	de, #_CatSprite
    00000086 D5               [16]  165 	push	de
    00000087 21 00 09         [12]  166 	ld	hl, #0x900
    0000008A E5               [16]  167 	push	hl
    0000008B CDr00r00         [24]  168 	call	_set_sprite_data
    0000008E E8 04            [16]  169 	add	sp, #4
                                    170 ;c:\gbdk\include\gb\gb.h:1887: shadow_OAM[nb].tile=tile;
    00000090 21r02r00         [12]  171 	ld	hl, #(_shadow_OAM + 2)
    00000093 36 00            [12]  172 	ld	(hl), #0x00
    00000095 21r06r00         [12]  173 	ld	hl, #(_shadow_OAM + 6)
    00000098 36 01            [12]  174 	ld	(hl), #0x01
    0000009A 21r0Ar00         [12]  175 	ld	hl, #(_shadow_OAM + 10)
    0000009D 36 02            [12]  176 	ld	(hl), #0x02
    0000009F 21r0Er00         [12]  177 	ld	hl, #(_shadow_OAM + 14)
    000000A2 36 03            [12]  178 	ld	(hl), #0x03
    000000A4 21r12r00         [12]  179 	ld	hl, #(_shadow_OAM + 18)
    000000A7 36 04            [12]  180 	ld	(hl), #0x04
    000000A9 21r16r00         [12]  181 	ld	hl, #(_shadow_OAM + 22)
    000000AC 36 05            [12]  182 	ld	(hl), #0x05
    000000AE 21r1Ar00         [12]  183 	ld	hl, #(_shadow_OAM + 26)
    000000B1 36 06            [12]  184 	ld	(hl), #0x06
    000000B3 21r1Er00         [12]  185 	ld	hl, #(_shadow_OAM + 30)
    000000B6 36 07            [12]  186 	ld	(hl), #0x07
    000000B8 21r22r00         [12]  187 	ld	hl, #(_shadow_OAM + 34)
    000000BB 36 08            [12]  188 	ld	(hl), #0x08
                                    189 ;c:\gbdk\include\gb\gb.h:1973: OAM_item_t * itm = &shadow_OAM[nb];
    000000BD 21r00r00         [12]  190 	ld	hl, #_shadow_OAM
                                    191 ;c:\gbdk\include\gb\gb.h:1974: itm->y=y, itm->x=x;
    000000C0 3E 24            [ 8]  192 	ld	a, #0x24
    000000C2 22               [ 8]  193 	ld	(hl+), a
    000000C3 36 44            [12]  194 	ld	(hl), #0x44
                                    195 ;c:\gbdk\include\gb\gb.h:1973: OAM_item_t * itm = &shadow_OAM[nb];
    000000C5 21r04r00         [12]  196 	ld	hl, #(_shadow_OAM + 4)
                                    197 ;c:\gbdk\include\gb\gb.h:1974: itm->y=y, itm->x=x;
    000000C8 3E 24            [ 8]  198 	ld	a, #0x24
    000000CA 22               [ 8]  199 	ld	(hl+), a
    000000CB 36 4C            [12]  200 	ld	(hl), #0x4c
                                    201 ;c:\gbdk\include\gb\gb.h:1973: OAM_item_t * itm = &shadow_OAM[nb];
    000000CD 21r08r00         [12]  202 	ld	hl, #(_shadow_OAM + 8)
                                    203 ;c:\gbdk\include\gb\gb.h:1974: itm->y=y, itm->x=x;
    000000D0 3E 24            [ 8]  204 	ld	a, #0x24
    000000D2 22               [ 8]  205 	ld	(hl+), a
    000000D3 36 54            [12]  206 	ld	(hl), #0x54
                                    207 ;c:\gbdk\include\gb\gb.h:1973: OAM_item_t * itm = &shadow_OAM[nb];
    000000D5 21r0Cr00         [12]  208 	ld	hl, #(_shadow_OAM + 12)
                                    209 ;c:\gbdk\include\gb\gb.h:1974: itm->y=y, itm->x=x;
    000000D8 3E 2C            [ 8]  210 	ld	a, #0x2c
    000000DA 22               [ 8]  211 	ld	(hl+), a
    000000DB 36 44            [12]  212 	ld	(hl), #0x44
                                    213 ;c:\gbdk\include\gb\gb.h:1973: OAM_item_t * itm = &shadow_OAM[nb];
    000000DD 21r10r00         [12]  214 	ld	hl, #(_shadow_OAM + 16)
                                    215 ;c:\gbdk\include\gb\gb.h:1974: itm->y=y, itm->x=x;
    000000E0 3E 2C            [ 8]  216 	ld	a, #0x2c
    000000E2 22               [ 8]  217 	ld	(hl+), a
    000000E3 36 4C            [12]  218 	ld	(hl), #0x4c
                                    219 ;c:\gbdk\include\gb\gb.h:1973: OAM_item_t * itm = &shadow_OAM[nb];
    000000E5 21r14r00         [12]  220 	ld	hl, #(_shadow_OAM + 20)
                                    221 ;c:\gbdk\include\gb\gb.h:1974: itm->y=y, itm->x=x;
    000000E8 3E 2C            [ 8]  222 	ld	a, #0x2c
    000000EA 22               [ 8]  223 	ld	(hl+), a
    000000EB 36 54            [12]  224 	ld	(hl), #0x54
                                    225 ;c:\gbdk\include\gb\gb.h:1973: OAM_item_t * itm = &shadow_OAM[nb];
    000000ED 21r18r00         [12]  226 	ld	hl, #(_shadow_OAM + 24)
                                    227 ;c:\gbdk\include\gb\gb.h:1974: itm->y=y, itm->x=x;
    000000F0 3E 34            [ 8]  228 	ld	a, #0x34
    000000F2 22               [ 8]  229 	ld	(hl+), a
    000000F3 36 44            [12]  230 	ld	(hl), #0x44
                                    231 ;c:\gbdk\include\gb\gb.h:1973: OAM_item_t * itm = &shadow_OAM[nb];
    000000F5 21r1Cr00         [12]  232 	ld	hl, #(_shadow_OAM + 28)
                                    233 ;c:\gbdk\include\gb\gb.h:1974: itm->y=y, itm->x=x;
    000000F8 3E 34            [ 8]  234 	ld	a, #0x34
    000000FA 22               [ 8]  235 	ld	(hl+), a
    000000FB 36 4C            [12]  236 	ld	(hl), #0x4c
                                    237 ;c:\gbdk\include\gb\gb.h:1973: OAM_item_t * itm = &shadow_OAM[nb];
    000000FD 21r20r00         [12]  238 	ld	hl, #(_shadow_OAM + 32)
                                    239 ;c:\gbdk\include\gb\gb.h:1974: itm->y=y, itm->x=x;
    00000100 3E 34            [ 8]  240 	ld	a, #0x34
    00000102 22               [ 8]  241 	ld	(hl+), a
    00000103 36 54            [12]  242 	ld	(hl), #0x54
                                    243 ;cat_sprite.h:62: move_sprite(8, 84, 52);
                                    244 ;cat_sprite.h:63: }
    00000105 C9               [16]  245 	ret
                                    246 ;sprites/Poodle2.c:7: BANKREF(Poodle2)
                                    247 ;	---------------------------------
                                    248 ; Function __func_Poodle2
                                    249 ; ---------------------------------
                         00000000   250 	b___func_Poodle2	= 0
    00000106                        251 ___func_Poodle2::
                                    252 	.local b___func_Poodle2 
                         00000000   253 	___bank_Poodle2 = b___func_Poodle2 
                                    254 	.globl ___bank_Poodle2 
                                    255 ;dog_sprite2.h:3: void setup_dog2_sprite_selection(void) {
                                    256 ;	---------------------------------
                                    257 ; Function setup_dog2_sprite_selection
                                    258 ; ---------------------------------
    00000106                        259 _setup_dog2_sprite_selection::
                                    260 ;dog_sprite2.h:5: }
    00000106 C9               [16]  261 	ret
    00000107                        262 _Poodle2_palettes:
    00000107 00 00                  263 	.dw #0x0000
    00000109 00 00                  264 	.dw #0x0000
    0000010B 00 00                  265 	.dw #0x0000
    0000010D 01 04                  266 	.dw #0x0401
    0000010F                        267 _Poodle2_tiles:
    0000010F 00                     268 	.db #0x00	; 0
    00000110 00                     269 	.db #0x00	; 0
    00000111 00                     270 	.db #0x00	; 0
    00000112 00                     271 	.db #0x00	; 0
    00000113 00                     272 	.db #0x00	; 0
    00000114 00                     273 	.db #0x00	; 0
    00000115 00                     274 	.db #0x00	; 0
    00000116 00                     275 	.db #0x00	; 0
    00000117 00                     276 	.db #0x00	; 0
    00000118 00                     277 	.db #0x00	; 0
    00000119 00                     278 	.db #0x00	; 0
    0000011A 00                     279 	.db #0x00	; 0
    0000011B 00                     280 	.db #0x00	; 0
    0000011C 00                     281 	.db #0x00	; 0
    0000011D 00                     282 	.db #0x00	; 0
    0000011E 00                     283 	.db #0x00	; 0
    0000011F 00                     284 	.db #0x00	; 0
    00000120 00                     285 	.db #0x00	; 0
    00000121 01                     286 	.db #0x01	; 1
    00000122 01                     287 	.db #0x01	; 1
    00000123 06                     288 	.db #0x06	; 6
    00000124 07                     289 	.db #0x07	; 7
    00000125 09                     290 	.db #0x09	; 9
    00000126 0E                     291 	.db #0x0e	; 14
    00000127 17                     292 	.db #0x17	; 23
    00000128 18                     293 	.db #0x18	; 24
    00000129 27                     294 	.db #0x27	; 39
    0000012A 38                     295 	.db #0x38	; 56	'8'
    0000012B 2F                     296 	.db #0x2f	; 47
    0000012C 30                     297 	.db #0x30	; 48	'0'
    0000012D 5F                     298 	.db #0x5f	; 95
    0000012E 60                     299 	.db #0x60	; 96
    0000012F 7F                     300 	.db #0x7f	; 127
    00000130 7F                     301 	.db #0x7f	; 127
    00000131 81                     302 	.db #0x81	; 129
    00000132 FF                     303 	.db #0xff	; 255
    00000133 00                     304 	.db #0x00	; 0
    00000134 FF                     305 	.db #0xff	; 255
    00000135 FF                     306 	.db #0xff	; 255
    00000136 00                     307 	.db #0x00	; 0
    00000137 FF                     308 	.db #0xff	; 255
    00000138 00                     309 	.db #0x00	; 0
    00000139 FF                     310 	.db #0xff	; 255
    0000013A 00                     311 	.db #0x00	; 0
    0000013B FF                     312 	.db #0xff	; 255
    0000013C 00                     313 	.db #0x00	; 0
    0000013D FF                     314 	.db #0xff	; 255
    0000013E 00                     315 	.db #0x00	; 0
    0000013F 00                     316 	.db #0x00	; 0
    00000140 00                     317 	.db #0x00	; 0
    00000141 80                     318 	.db #0x80	; 128
    00000142 80                     319 	.db #0x80	; 128
    00000143 60                     320 	.db #0x60	; 96
    00000144 E0                     321 	.db #0xe0	; 224
    00000145 90                     322 	.db #0x90	; 144
    00000146 70                     323 	.db #0x70	; 112	'p'
    00000147 E8                     324 	.db #0xe8	; 232
    00000148 18                     325 	.db #0x18	; 24
    00000149 F4                     326 	.db #0xf4	; 244
    0000014A 0C                     327 	.db #0x0c	; 12
    0000014B FC                     328 	.db #0xfc	; 252
    0000014C 04                     329 	.db #0x04	; 4
    0000014D FA                     330 	.db #0xfa	; 250
    0000014E 06                     331 	.db #0x06	; 6
    0000014F 00                     332 	.db #0x00	; 0
    00000150 00                     333 	.db #0x00	; 0
    00000151 00                     334 	.db #0x00	; 0
    00000152 00                     335 	.db #0x00	; 0
    00000153 00                     336 	.db #0x00	; 0
    00000154 00                     337 	.db #0x00	; 0
    00000155 00                     338 	.db #0x00	; 0
    00000156 00                     339 	.db #0x00	; 0
    00000157 00                     340 	.db #0x00	; 0
    00000158 00                     341 	.db #0x00	; 0
    00000159 01                     342 	.db #0x01	; 1
    0000015A 01                     343 	.db #0x01	; 1
    0000015B 03                     344 	.db #0x03	; 3
    0000015C 02                     345 	.db #0x02	; 2
    0000015D 07                     346 	.db #0x07	; 7
    0000015E 04                     347 	.db #0x04	; 4
    0000015F 7F                     348 	.db #0x7f	; 127
    00000160 40                     349 	.db #0x40	; 64
    00000161 BF                     350 	.db #0xbf	; 191
    00000162 C0                     351 	.db #0xc0	; 192
    00000163 BF                     352 	.db #0xbf	; 191
    00000164 C0                     353 	.db #0xc0	; 192
    00000165 FF                     354 	.db #0xff	; 255
    00000166 80                     355 	.db #0x80	; 128
    00000167 FE                     356 	.db #0xfe	; 254
    00000168 81                     357 	.db #0x81	; 129
    00000169 B9                     358 	.db #0xb9	; 185
    0000016A C6                     359 	.db #0xc6	; 198
    0000016B 53                     360 	.db #0x53	; 83	'S'
    0000016C EC                     361 	.db #0xec	; 236
    0000016D A7                     362 	.db #0xa7	; 167
    0000016E 78                     363 	.db #0x78	; 120	'x'
    0000016F FF                     364 	.db #0xff	; 255
    00000170 00                     365 	.db #0x00	; 0
    00000171 FF                     366 	.db #0xff	; 255
    00000172 00                     367 	.db #0x00	; 0
    00000173 FF                     368 	.db #0xff	; 255
    00000174 00                     369 	.db #0x00	; 0
    00000175 FF                     370 	.db #0xff	; 255
    00000176 00                     371 	.db #0x00	; 0
    00000177 30                     372 	.db #0x30	; 48	'0'
    00000178 CF                     373 	.db #0xcf	; 207
    00000179 5A                     374 	.db #0x5a	; 90	'Z'
    0000017A A5                     375 	.db #0xa5	; 165
    0000017B FF                     376 	.db #0xff	; 255
    0000017C 00                     377 	.db #0x00	; 0
    0000017D FF                     378 	.db #0xff	; 255
    0000017E 00                     379 	.db #0x00	; 0
    0000017F FE                     380 	.db #0xfe	; 254
    00000180 02                     381 	.db #0x02	; 2
    00000181 FD                     382 	.db #0xfd	; 253
    00000182 03                     383 	.db #0x03	; 3
    00000183 FD                     384 	.db #0xfd	; 253
    00000184 03                     385 	.db #0x03	; 3
    00000185 FD                     386 	.db #0xfd	; 253
    00000186 03                     387 	.db #0x03	; 3
    00000187 7F                     388 	.db #0x7f	; 127
    00000188 81                     389 	.db #0x81	; 129
    00000189 BD                     390 	.db #0xbd	; 189
    0000018A 43                     391 	.db #0x43	; 67	'C'
    0000018B DB                     392 	.db #0xdb	; 219
    0000018C 26                     393 	.db #0x26	; 38
    0000018D E5                     394 	.db #0xe5	; 229
    0000018E 1E                     395 	.db #0x1e	; 30
    0000018F 07                     396 	.db #0x07	; 7
    00000190 04                     397 	.db #0x04	; 4
    00000191 0B                     398 	.db #0x0b	; 11
    00000192 0C                     399 	.db #0x0c	; 12
    00000193 0F                     400 	.db #0x0f	; 15
    00000194 08                     401 	.db #0x08	; 8
    00000195 17                     402 	.db #0x17	; 23
    00000196 18                     403 	.db #0x18	; 24
    00000197 1F                     404 	.db #0x1f	; 31
    00000198 10                     405 	.db #0x10	; 16
    00000199 1F                     406 	.db #0x1f	; 31
    0000019A 10                     407 	.db #0x10	; 16
    0000019B 2F                     408 	.db #0x2f	; 47
    0000019C 30                     409 	.db #0x30	; 48	'0'
    0000019D 3F                     410 	.db #0x3f	; 63
    0000019E 20                     411 	.db #0x20	; 32
    0000019F DF                     412 	.db #0xdf	; 223
    000001A0 33                     413 	.db #0x33	; 51	'3'
    000001A1 DD                     414 	.db #0xdd	; 221
    000001A2 35                     415 	.db #0x35	; 53	'5'
    000001A3 DF                     416 	.db #0xdf	; 223
    000001A4 37                     417 	.db #0x37	; 55	'7'
    000001A5 DF                     418 	.db #0xdf	; 223
    000001A6 33                     419 	.db #0x33	; 51	'3'
    000001A7 FF                     420 	.db #0xff	; 255
    000001A8 13                     421 	.db #0x13	; 19
    000001A9 DF                     422 	.db #0xdf	; 223
    000001AA 30                     423 	.db #0x30	; 48	'0'
    000001AB EF                     424 	.db #0xef	; 239
    000001AC 18                     425 	.db #0x18	; 24
    000001AD F7                     426 	.db #0xf7	; 247
    000001AE 0C                     427 	.db #0x0c	; 12
    000001AF FF                     428 	.db #0xff	; 255
    000001B0 81                     429 	.db #0x81	; 129
    000001B1 FF                     430 	.db #0xff	; 255
    000001B2 C3                     431 	.db #0xc3	; 195
    000001B3 FF                     432 	.db #0xff	; 255
    000001B4 C3                     433 	.db #0xc3	; 195
    000001B5 7E                     434 	.db #0x7e	; 126
    000001B6 42                     435 	.db #0x42	; 66	'B'
    000001B7 FF                     436 	.db #0xff	; 255
    000001B8 81                     437 	.db #0x81	; 129
    000001B9 FF                     438 	.db #0xff	; 255
    000001BA 00                     439 	.db #0x00	; 0
    000001BB FF                     440 	.db #0xff	; 255
    000001BC 3C                     441 	.db #0x3c	; 60
    000001BD FF                     442 	.db #0xff	; 255
    000001BE 18                     443 	.db #0x18	; 24
    000001BF 3F                     444 	.db #0x3f	; 63
    000001C0 20                     445 	.db #0x20	; 32
    000001C1 2F                     446 	.db #0x2f	; 47
    000001C2 30                     447 	.db #0x30	; 48	'0'
    000001C3 17                     448 	.db #0x17	; 23
    000001C4 18                     449 	.db #0x18	; 24
    000001C5 0D                     450 	.db #0x0d	; 13
    000001C6 0E                     451 	.db #0x0e	; 14
    000001C7 03                     452 	.db #0x03	; 3
    000001C8 03                     453 	.db #0x03	; 3
    000001C9 00                     454 	.db #0x00	; 0
    000001CA 00                     455 	.db #0x00	; 0
    000001CB 00                     456 	.db #0x00	; 0
    000001CC 00                     457 	.db #0x00	; 0
    000001CD 00                     458 	.db #0x00	; 0
    000001CE 00                     459 	.db #0x00	; 0
    000001CF F7                     460 	.db #0xf7	; 247
    000001D0 0C                     461 	.db #0x0c	; 12
    000001D1 EB                     462 	.db #0xeb	; 235
    000001D2 1A                     463 	.db #0x1a	; 26
    000001D3 B3                     464 	.db #0xb3	; 179
    000001D4 53                     465 	.db #0x53	; 83	'S'
    000001D5 67                     466 	.db #0x67	; 103	'g'
    000001D6 E4                     467 	.db #0xe4	; 228
    000001D7 8F                     468 	.db #0x8f	; 143
    000001D8 89                     469 	.db #0x89	; 137
    000001D9 3E                     470 	.db #0x3e	; 62
    000001DA 33                     471 	.db #0x33	; 51	'3'
    000001DB 4E                     472 	.db #0x4e	; 78	'N'
    000001DC 73                     473 	.db #0x73	; 115	's'
    000001DD 46                     474 	.db #0x46	; 70	'F'
    000001DE 7B                     475 	.db #0x7b	; 123
    000001DF FF                     476 	.db #0xff	; 255
    000001E0 5A                     477 	.db #0x5a	; 90	'Z'
    000001E1 FF                     478 	.db #0xff	; 255
    000001E2 3C                     479 	.db #0x3c	; 60
    000001E3 FF                     480 	.db #0xff	; 255
    000001E4 00                     481 	.db #0x00	; 0
    000001E5 FF                     482 	.db #0xff	; 255
    000001E6 FF                     483 	.db #0xff	; 255
    000001E7 00                     484 	.db #0x00	; 0
    000001E8 FF                     485 	.db #0xff	; 255
    000001E9 18                     486 	.db #0x18	; 24
    000001EA E7                     487 	.db #0xe7	; 231
    000001EB 3C                     488 	.db #0x3c	; 60
    000001EC C3                     489 	.db #0xc3	; 195
    000001ED 3C                     490 	.db #0x3c	; 60
    000001EE C3                     491 	.db #0xc3	; 195
    000001EF EF                     492 	.db #0xef	; 239
    000001F0 30                     493 	.db #0x30	; 48	'0'
    000001F1 D7                     494 	.db #0xd7	; 215
    000001F2 58                     495 	.db #0x58	; 88	'X'
    000001F3 CB                     496 	.db #0xcb	; 203
    000001F4 CC                     497 	.db #0xcc	; 204
    000001F5 E6                     498 	.db #0xe6	; 230
    000001F6 27                     499 	.db #0x27	; 39
    000001F7 F1                     500 	.db #0xf1	; 241
    000001F8 91                     501 	.db #0x91	; 145
    000001F9 7C                     502 	.db #0x7c	; 124
    000001FA CC                     503 	.db #0xcc	; 204
    000001FB 72                     504 	.db #0x72	; 114	'r'
    000001FC CE                     505 	.db #0xce	; 206
    000001FD 62                     506 	.db #0x62	; 98	'b'
    000001FE DE                     507 	.db #0xde	; 222
    000001FF 22                     508 	.db #0x22	; 34
    00000200 3F                     509 	.db #0x3f	; 63
    00000201 1E                     510 	.db #0x1e	; 30
    00000202 1F                     511 	.db #0x1f	; 31
    00000203 03                     512 	.db #0x03	; 3
    00000204 03                     513 	.db #0x03	; 3
    00000205 07                     514 	.db #0x07	; 7
    00000206 06                     515 	.db #0x06	; 6
    00000207 0A                     516 	.db #0x0a	; 10
    00000208 0D                     517 	.db #0x0d	; 13
    00000209 09                     518 	.db #0x09	; 9
    0000020A 0E                     519 	.db #0x0e	; 14
    0000020B 07                     520 	.db #0x07	; 7
    0000020C 07                     521 	.db #0x07	; 7
    0000020D 00                     522 	.db #0x00	; 0
    0000020E 00                     523 	.db #0x00	; 0
    0000020F 7E                     524 	.db #0x7e	; 126
    00000210 81                     525 	.db #0x81	; 129
    00000211 FF                     526 	.db #0xff	; 255
    00000212 00                     527 	.db #0x00	; 0
    00000213 FF                     528 	.db #0xff	; 255
    00000214 C3                     529 	.db #0xc3	; 195
    00000215 7E                     530 	.db #0x7e	; 126
    00000216 A5                     531 	.db #0xa5	; 165
    00000217 BD                     532 	.db #0xbd	; 189
    00000218 66                     533 	.db #0x66	; 102	'f'
    00000219 7E                     534 	.db #0x7e	; 126
    0000021A A5                     535 	.db #0xa5	; 165
    0000021B FF                     536 	.db #0xff	; 255
    0000021C FF                     537 	.db #0xff	; 255
    0000021D 00                     538 	.db #0x00	; 0
    0000021E 00                     539 	.db #0x00	; 0
    0000021F 44                     540 	.db #0x44	; 68	'D'
    00000220 FC                     541 	.db #0xfc	; 252
    00000221 79                     542 	.db #0x79	; 121	'y'
    00000222 F9                     543 	.db #0xf9	; 249
    00000223 C3                     544 	.db #0xc3	; 195
    00000224 C2                     545 	.db #0xc2	; 194
    00000225 E7                     546 	.db #0xe7	; 231
    00000226 66                     547 	.db #0x66	; 102	'f'
    00000227 5F                     548 	.db #0x5f	; 95
    00000228 B8                     549 	.db #0xb8	; 184
    00000229 9F                     550 	.db #0x9f	; 159
    0000022A 73                     551 	.db #0x73	; 115	's'
    0000022B FC                     552 	.db #0xfc	; 252
    0000022C FC                     553 	.db #0xfc	; 252
    0000022D 00                     554 	.db #0x00	; 0
    0000022E 00                     555 	.db #0x00	; 0
    0000022F C0                     556 	.db #0xc0	; 192
    00000230 C0                     557 	.db #0xc0	; 192
    00000231 20                     558 	.db #0x20	; 32
    00000232 E0                     559 	.db #0xe0	; 224
    00000233 D0                     560 	.db #0xd0	; 208
    00000234 30                     561 	.db #0x30	; 48	'0'
    00000235 F0                     562 	.db #0xf0	; 240
    00000236 10                     563 	.db #0x10	; 16
    00000237 D0                     564 	.db #0xd0	; 208
    00000238 30                     565 	.db #0x30	; 48	'0'
    00000239 20                     566 	.db #0x20	; 32
    0000023A E0                     567 	.db #0xe0	; 224
    0000023B C0                     568 	.db #0xc0	; 192
    0000023C C0                     569 	.db #0xc0	; 192
    0000023D 00                     570 	.db #0x00	; 0
    0000023E 00                     571 	.db #0x00	; 0
    0000023F                        572 _Poodle2_map:
    0000023F 00                     573 	.db #0x00	; 0
    00000240 01                     574 	.db #0x01	; 1
    00000241 02                     575 	.db #0x02	; 2
    00000242 03                     576 	.db #0x03	; 3
    00000243 00                     577 	.db #0x00	; 0
    00000244 04                     578 	.db #0x04	; 4
    00000245 05                     579 	.db #0x05	; 5
    00000246 06                     580 	.db #0x06	; 6
    00000247 07                     581 	.db #0x07	; 7
    00000248 04                     582 	.db #0x04	; 4
    00000249 08                     583 	.db #0x08	; 8
    0000024A 09                     584 	.db #0x09	; 9
    0000024B 0A                     585 	.db #0x0a	; 10
    0000024C 09                     586 	.db #0x09	; 9
    0000024D 08                     587 	.db #0x08	; 8
    0000024E 0B                     588 	.db #0x0b	; 11
    0000024F 0C                     589 	.db #0x0c	; 12
    00000250 0D                     590 	.db #0x0d	; 13
    00000251 0E                     591 	.db #0x0e	; 14
    00000252 0B                     592 	.db #0x0b	; 11
    00000253 00                     593 	.db #0x00	; 0
    00000254 0F                     594 	.db #0x0f	; 15
    00000255 10                     595 	.db #0x10	; 16
    00000256 11                     596 	.db #0x11	; 17
    00000257 12                     597 	.db #0x12	; 18
                                    598 ;dog_sprite2.h:7: void setup_dog2_sprite_main(void) {
                                    599 ;	---------------------------------
                                    600 ; Function setup_dog2_sprite_main
                                    601 ; ---------------------------------
    00000258                        602 _setup_dog2_sprite_main::
    00000258 E8 FB            [16]  603 	add	sp, #-5
                                    604 ;dog_sprite2.h:11: uint8_t sprite_index = 30; // WICHTIG: Anderen Sprite-Slot verwenden!
    0000025A 06 1E            [ 8]  605 	ld	b, #0x1e
                                    606 ;dog_sprite2.h:15: set_sprite_data(tile_offset, 19, Poodle2_tiles);
    0000025C 11r0Fr01         [12]  607 	ld	de, #_Poodle2_tiles
    0000025F D5               [16]  608 	push	de
    00000260 21 28 13         [12]  609 	ld	hl, #0x1328
    00000263 E5               [16]  610 	push	hl
    00000264 CDr00r00         [24]  611 	call	_set_sprite_data
    00000267 E8 04            [16]  612 	add	sp, #4
                                    613 ;dog_sprite2.h:18: for (uint8_t i = sprite_index; i < sprite_index + 25; i++) {
    00000269 0E 1E            [ 8]  614 	ld	c, #0x1e
    0000026B                        615 00115$:
    0000026B F8 03            [12]  616 	ldhl	sp,	#3
    0000026D 79               [ 4]  617 	ld	a, c
    0000026E 22               [ 8]  618 	ld	(hl+), a
    0000026F AF               [ 4]  619 	xor	a, a
    00000270 32               [ 8]  620 	ld	(hl-), a
    00000271 2A               [ 8]  621 	ld	a, (hl+)
    00000272 D6 37            [ 8]  622 	sub	a, #0x37
    00000274 7E               [ 8]  623 	ld	a, (hl)
    00000275 DE 00            [ 8]  624 	sbc	a, #0x00
    00000277 30 1D            [12]  625 	jr	NC, 00101$
                                    626 ;c:\gbdk\include\gb\gb.h:1973: OAM_item_t * itm = &shadow_OAM[nb];
    00000279 2B               [ 8]  627 	dec	hl
    0000027A 5E               [ 8]  628 	ld	e, (hl)
    0000027B 16 00            [ 8]  629 	ld	d, #0x00
    0000027D CB 23            [ 8]  630 	sla	e
    0000027F CB 12            [ 8]  631 	rl	d
    00000281 CB 23            [ 8]  632 	sla	e
    00000283 CB 12            [ 8]  633 	rl	d
    00000285 21r00r00         [12]  634 	ld	hl, #_shadow_OAM
    00000288 19               [ 8]  635 	add	hl, de
                                    636 ;c:\gbdk\include\gb\gb.h:1974: itm->y=y, itm->x=x;
    00000289 AF               [ 4]  637 	xor	a, a
    0000028A 22               [ 8]  638 	ld	(hl+), a
    0000028B 77               [ 8]  639 	ld	(hl), a
                                    640 ;c:\gbdk\include\gb\gb.h:1887: shadow_OAM[nb].tile=tile;
    0000028C 21r01r00         [12]  641 	ld	hl,#_shadow_OAM + 1
    0000028F 19               [ 8]  642 	add	hl,de
    00000290 23               [ 8]  643 	inc	hl
    00000291 36 00            [12]  644 	ld	(hl), #0x00
                                    645 ;dog_sprite2.h:18: for (uint8_t i = sprite_index; i < sprite_index + 25; i++) {
    00000293 0C               [ 4]  646 	inc	c
    00000294 18 D5            [12]  647 	jr	00115$
    00000296                        648 00101$:
                                    649 ;dog_sprite2.h:24: for (uint8_t row = 0; row < 5; row++) {
    00000296 F8 03            [12]  650 	ldhl	sp,	#3
    00000298 36 00            [12]  651 	ld	(hl), #0x00
    0000029A                        652 00121$:
    0000029A F8 03            [12]  653 	ldhl	sp,	#3
    0000029C 7E               [ 8]  654 	ld	a, (hl)
    0000029D D6 05            [ 8]  655 	sub	a, #0x05
    0000029F 30 6E            [12]  656 	jr	NC, 00109$
                                    657 ;dog_sprite2.h:25: for (uint8_t col = 0; col < 5; col++) {
    000002A1 23               [ 8]  658 	inc	hl
    000002A2 48               [ 4]  659 	ld	c, b
    000002A3 36 00            [12]  660 	ld	(hl), #0x00
    000002A5                        661 00118$:
    000002A5 F8 04            [12]  662 	ldhl	sp,	#4
    000002A7 7E               [ 8]  663 	ld	a, (hl)
    000002A8 D6 05            [ 8]  664 	sub	a, #0x05
    000002AA 30 58            [12]  665 	jr	NC, 00134$
                                    666 ;dog_sprite2.h:26: uint8_t tile_id = Poodle2_map[row * 5 + col];
    000002AC 2B               [ 8]  667 	dec	hl
    000002AD 3A               [ 8]  668 	ld	a, (hl-)
    000002AE 77               [ 8]  669 	ld	(hl), a
    000002AF 2A               [ 8]  670 	ld	a, (hl+)
    000002B0 23               [ 8]  671 	inc	hl
    000002B1 5F               [ 4]  672 	ld	e, a
    000002B2 87               [ 4]  673 	add	a, a
    000002B3 87               [ 4]  674 	add	a, a
    000002B4 83               [ 4]  675 	add	a, e
    000002B5 46               [ 8]  676 	ld	b, (hl)
    000002B6 80               [ 4]  677 	add	a, b
    000002B7 6F               [ 4]  678 	ld	l, a
    000002B8 26 00            [ 8]  679 	ld	h, #0x00
    000002BA 11r3Fr02         [12]  680 	ld	de, #_Poodle2_map
    000002BD 19               [ 8]  681 	add	hl, de
    000002BE 7E               [ 8]  682 	ld	a, (hl)
    000002BF 5F               [ 4]  683 	ld	e, a
                                    684 ;dog_sprite2.h:28: if (tile_id != 0) {
    000002C0 B7               [ 4]  685 	or	a, a
    000002C1 28 3C            [12]  686 	jr	Z, 00119$
                                    687 ;dog_sprite2.h:29: uint8_t sprite_x = dog_x + (col * 8);
    000002C3 F8 04            [12]  688 	ldhl	sp,	#4
    000002C5 7E               [ 8]  689 	ld	a, (hl)
    000002C6 87               [ 4]  690 	add	a, a
    000002C7 87               [ 4]  691 	add	a, a
    000002C8 87               [ 4]  692 	add	a, a
    000002C9 C6 3C            [ 8]  693 	add	a, #0x3c
    000002CB F8 00            [12]  694 	ldhl	sp,	#0
                                    695 ;dog_sprite2.h:30: uint8_t sprite_y = dog_y + (row * 8);
    000002CD 22               [ 8]  696 	ld	(hl+), a
    000002CE 23               [ 8]  697 	inc	hl
    000002CF 3A               [ 8]  698 	ld	a, (hl-)
    000002D0 87               [ 4]  699 	add	a, a
    000002D1 87               [ 4]  700 	add	a, a
    000002D2 87               [ 4]  701 	add	a, a
    000002D3 C6 3C            [ 8]  702 	add	a, #0x3c
                                    703 ;dog_sprite2.h:33: set_sprite_tile(sprite_index, tile_id + tile_offset);
    000002D5 22               [ 8]  704 	ld	(hl+), a
    000002D6 7B               [ 4]  705 	ld	a, e
    000002D7 C6 28            [ 8]  706 	add	a, #0x28
    000002D9 77               [ 8]  707 	ld	(hl), a
                                    708 ;c:\gbdk\include\gb\gb.h:1887: shadow_OAM[nb].tile=tile;
    000002DA 69               [ 4]  709 	ld	l, c
    000002DB 26 00            [ 8]  710 	ld	h, #0x00
    000002DD 29               [ 8]  711 	add	hl, hl
    000002DE 29               [ 8]  712 	add	hl, hl
    000002DF 5D               [ 4]  713 	ld	e, l
    000002E0 54               [ 4]  714 	ld	d, h
    000002E1 21r01r00         [12]  715 	ld	hl,#_shadow_OAM + 1
    000002E4 19               [ 8]  716 	add	hl,de
    000002E5 23               [ 8]  717 	inc	hl
    000002E6 E5               [16]  718 	push	hl
    000002E7 F8 04            [12]  719 	ldhl	sp,	#4
    000002E9 7E               [ 8]  720 	ld	a, (hl)
    000002EA E1               [12]  721 	pop	hl
    000002EB 77               [ 8]  722 	ld	(hl), a
                                    723 ;c:\gbdk\include\gb\gb.h:1973: OAM_item_t * itm = &shadow_OAM[nb];
    000002EC 21r00r00         [12]  724 	ld	hl, #_shadow_OAM
    000002EF 19               [ 8]  725 	add	hl, de
    000002F0 5D               [ 4]  726 	ld	e, l
    000002F1 54               [ 4]  727 	ld	d, h
                                    728 ;c:\gbdk\include\gb\gb.h:1974: itm->y=y, itm->x=x;
    000002F2 F8 01            [12]  729 	ldhl	sp,	#1
    000002F4 3A               [ 8]  730 	ld	a, (hl-)
    000002F5 12               [ 8]  731 	ld	(de), a
    000002F6 13               [ 8]  732 	inc	de
    000002F7 7E               [ 8]  733 	ld	a, (hl)
    000002F8 12               [ 8]  734 	ld	(de), a
                                    735 ;dog_sprite2.h:36: sprite_index++;
    000002F9 0C               [ 4]  736 	inc	c
                                    737 ;dog_sprite2.h:38: if (sprite_index >= 40) break;
    000002FA 79               [ 4]  738 	ld	a, c
    000002FB D6 28            [ 8]  739 	sub	a, #0x28
    000002FD 30 05            [12]  740 	jr	NC, 00134$
    000002FF                        741 00119$:
                                    742 ;dog_sprite2.h:25: for (uint8_t col = 0; col < 5; col++) {
    000002FF F8 04            [12]  743 	ldhl	sp,	#4
    00000301 34               [12]  744 	inc	(hl)
    00000302 18 A1            [12]  745 	jr	00118$
    00000304                        746 00134$:
    00000304 41               [ 4]  747 	ld	b, c
                                    748 ;dog_sprite2.h:41: if (sprite_index >= 40) break;
    00000305 79               [ 4]  749 	ld	a, c
    00000306 D6 28            [ 8]  750 	sub	a, #0x28
    00000308 30 05            [12]  751 	jr	NC, 00109$
                                    752 ;dog_sprite2.h:24: for (uint8_t row = 0; row < 5; row++) {
    0000030A F8 03            [12]  753 	ldhl	sp,	#3
    0000030C 34               [12]  754 	inc	(hl)
    0000030D 18 8B            [12]  755 	jr	00121$
    0000030F                        756 00109$:
                                    757 ;dog_sprite2.h:44: SHOW_SPRITES;
    0000030F F0r00            [12]  758 	ldh	a, (_LCDC_REG + 0)
    00000311 F6 02            [ 8]  759 	or	a, #0x02
    00000313 E0r00            [12]  760 	ldh	(_LCDC_REG + 0), a
                                    761 ;dog_sprite2.h:45: }
    00000315 E8 05            [16]  762 	add	sp, #5
    00000317 C9               [16]  763 	ret
                                    764 ;dog_sprite2.h:48: void clear_all_sprites(void) {
                                    765 ;	---------------------------------
                                    766 ; Function clear_all_sprites
                                    767 ; ---------------------------------
    00000318                        768 _clear_all_sprites::
                                    769 ;dog_sprite2.h:49: for (uint8_t i = 0; i < 40; i++) {
    00000318 0E 00            [ 8]  770 	ld	c, #0x00
    0000031A                        771 00105$:
    0000031A 79               [ 4]  772 	ld	a, c
    0000031B D6 28            [ 8]  773 	sub	a, #0x28
    0000031D D0               [20]  774 	ret	NC
                                    775 ;c:\gbdk\include\gb\gb.h:1973: OAM_item_t * itm = &shadow_OAM[nb];
    0000031E 69               [ 4]  776 	ld	l, c
    0000031F 26 00            [ 8]  777 	ld	h, #0x00
    00000321 29               [ 8]  778 	add	hl, hl
    00000322 29               [ 8]  779 	add	hl, hl
    00000323 5D               [ 4]  780 	ld	e, l
    00000324 54               [ 4]  781 	ld	d, h
    00000325 21r00r00         [12]  782 	ld	hl, #_shadow_OAM
    00000328 19               [ 8]  783 	add	hl, de
                                    784 ;c:\gbdk\include\gb\gb.h:1974: itm->y=y, itm->x=x;
    00000329 AF               [ 4]  785 	xor	a, a
    0000032A 22               [ 8]  786 	ld	(hl+), a
    0000032B 77               [ 8]  787 	ld	(hl), a
                                    788 ;c:\gbdk\include\gb\gb.h:1887: shadow_OAM[nb].tile=tile;
    0000032C 21r01r00         [12]  789 	ld	hl,#_shadow_OAM + 1
    0000032F 19               [ 8]  790 	add	hl,de
    00000330 23               [ 8]  791 	inc	hl
    00000331 36 00            [12]  792 	ld	(hl), #0x00
                                    793 ;dog_sprite2.h:49: for (uint8_t i = 0; i < 40; i++) {
    00000333 0C               [ 4]  794 	inc	c
                                    795 ;dog_sprite2.h:53: }
    00000334 18 E4            [12]  796 	jr	00105$
                                    797 ;dog_sprite2.h:66: void setup_dog2_sprite_selection_managed(void) {
                                    798 ;	---------------------------------
                                    799 ; Function setup_dog2_sprite_selection_managed
                                    800 ; ---------------------------------
    00000336                        801 _setup_dog2_sprite_selection_managed::
    00000336 E8 F7            [16]  802 	add	sp, #-9
                                    803 ;dog_sprite2.h:68: if (poodle_selection.is_active) {
    00000338 FArF3r00         [16]  804 	ld	a, (#(_poodle_selection + 3) + 0)
    0000033B B7               [ 4]  805 	or	a, a
    0000033C 28 41            [12]  806 	jr	Z, 00103$
                                    807 ;dog_sprite2.h:69: for (uint8_t i = poodle_selection.sprite_start_index; 
    0000033E FArF0r00         [16]  808 	ld	a, (#_poodle_selection + 0)
    00000341 F8 08            [12]  809 	ldhl	sp,	#8
    00000343 77               [ 8]  810 	ld	(hl), a
    00000344                        811 00117$:
                                    812 ;dog_sprite2.h:70: i < poodle_selection.sprite_start_index + poodle_selection.num_sprites_used; i++) {
    00000344 21rF0r00         [12]  813 	ld	hl, #_poodle_selection
    00000347 4E               [ 8]  814 	ld	c, (hl)
    00000348 06 00            [ 8]  815 	ld	b, #0x00
    0000034A 21rF2r00         [12]  816 	ld	hl, #(_poodle_selection + 2)
    0000034D 6E               [ 8]  817 	ld	l, (hl)
    0000034E 26 00            [ 8]  818 	ld	h, #0x00
    00000350 09               [ 8]  819 	add	hl, bc
    00000351 4D               [ 4]  820 	ld	c, l
    00000352 44               [ 4]  821 	ld	b, h
    00000353 F8 08            [12]  822 	ldhl	sp,	#8
    00000355 3A               [ 8]  823 	ld	a, (hl-)
    00000356 2B               [ 8]  824 	dec	hl
    00000357 22               [ 8]  825 	ld	(hl+), a
    00000358 AF               [ 4]  826 	xor	a, a
    00000359 32               [ 8]  827 	ld	(hl-), a
    0000035A 2A               [ 8]  828 	ld	a, (hl+)
    0000035B 91               [ 4]  829 	sub	a, c
    0000035C 7E               [ 8]  830 	ld	a, (hl)
    0000035D 98               [ 4]  831 	sbc	a, b
    0000035E 30 1F            [12]  832 	jr	NC, 00103$
                                    833 ;c:\gbdk\include\gb\gb.h:1973: OAM_item_t * itm = &shadow_OAM[nb];
    00000360 2B               [ 8]  834 	dec	hl
    00000361 4E               [ 8]  835 	ld	c, (hl)
    00000362 06 00            [ 8]  836 	ld	b, #0x00
    00000364 CB 21            [ 8]  837 	sla	c
    00000366 CB 10            [ 8]  838 	rl	b
    00000368 CB 21            [ 8]  839 	sla	c
    0000036A CB 10            [ 8]  840 	rl	b
    0000036C 21r00r00         [12]  841 	ld	hl, #_shadow_OAM
    0000036F 09               [ 8]  842 	add	hl, bc
                                    843 ;c:\gbdk\include\gb\gb.h:1974: itm->y=y, itm->x=x;
    00000370 AF               [ 4]  844 	xor	a, a
    00000371 22               [ 8]  845 	ld	(hl+), a
    00000372 77               [ 8]  846 	ld	(hl), a
                                    847 ;c:\gbdk\include\gb\gb.h:1887: shadow_OAM[nb].tile=tile;
    00000373 21r01r00         [12]  848 	ld	hl,#_shadow_OAM + 1
    00000376 09               [ 8]  849 	add	hl,bc
    00000377 23               [ 8]  850 	inc	hl
    00000378 36 00            [12]  851 	ld	(hl), #0x00
                                    852 ;dog_sprite2.h:70: i < poodle_selection.sprite_start_index + poodle_selection.num_sprites_used; i++) {
    0000037A F8 08            [12]  853 	ldhl	sp,	#8
    0000037C 34               [12]  854 	inc	(hl)
    0000037D 18 C5            [12]  855 	jr	00117$
    0000037F                        856 00103$:
                                    857 ;dog_sprite2.h:78: uint8_t sprite_index = poodle_selection.sprite_start_index;
    0000037F 21rF0r00         [12]  858 	ld	hl, #_poodle_selection
    00000382 4E               [ 8]  859 	ld	c, (hl)
                                    860 ;dog_sprite2.h:81: set_sprite_data(poodle_selection.tile_data_offset, 19, Poodle2_tiles);
    00000383 FArF1r00         [16]  861 	ld	a, (#(_poodle_selection + 1) + 0)
    00000386 11r0Fr01         [12]  862 	ld	de, #_Poodle2_tiles
    00000389 D5               [16]  863 	push	de
    0000038A 26 13            [ 8]  864 	ld	h, #0x13
    0000038C E5               [16]  865 	push	hl
    0000038D 33               [ 8]  866 	inc	sp
    0000038E F5               [16]  867 	push	af
    0000038F 33               [ 8]  868 	inc	sp
    00000390 CDr00r00         [24]  869 	call	_set_sprite_data
    00000393 E8 04            [16]  870 	add	sp, #4
                                    871 ;dog_sprite2.h:84: for (uint8_t row = 0; row < 5; row++) {
    00000395 F8 06            [12]  872 	ldhl	sp,	#6
    00000397 36 00            [12]  873 	ld	(hl), #0x00
    00000399                        874 00123$:
    00000399 F8 06            [12]  875 	ldhl	sp,	#6
    0000039B 7E               [ 8]  876 	ld	a, (hl)
    0000039C D6 05            [ 8]  877 	sub	a, #0x05
    0000039E D2r36r04         [16]  878 	jp	NC, 00111$
                                    879 ;dog_sprite2.h:85: for (uint8_t col = 0; col < 5; col++) {
    000003A1 23               [ 8]  880 	inc	hl
    000003A2 79               [ 4]  881 	ld	a, c
    000003A3 22               [ 8]  882 	ld	(hl+), a
    000003A4 36 00            [12]  883 	ld	(hl), #0x00
    000003A6                        884 00120$:
    000003A6 F8 08            [12]  885 	ldhl	sp,	#8
    000003A8 7E               [ 8]  886 	ld	a, (hl)
    000003A9 D6 05            [ 8]  887 	sub	a, #0x05
    000003AB 30 7C            [12]  888 	jr	NC, 00137$
                                    889 ;dog_sprite2.h:86: uint8_t tile_id = Poodle2_map[row * 5 + col];
    000003AD 2B               [ 8]  890 	dec	hl
    000003AE 2B               [ 8]  891 	dec	hl
    000003AF 2A               [ 8]  892 	ld	a, (hl+)
    000003B0 23               [ 8]  893 	inc	hl
    000003B1 4F               [ 4]  894 	ld	c, a
    000003B2 87               [ 4]  895 	add	a, a
    000003B3 87               [ 4]  896 	add	a, a
    000003B4 81               [ 4]  897 	add	a, c
    000003B5 46               [ 8]  898 	ld	b, (hl)
    000003B6 80               [ 4]  899 	add	a, b
    000003B7 6F               [ 4]  900 	ld	l, a
    000003B8 26 00            [ 8]  901 	ld	h, #0x00
    000003BA 11r3Fr02         [12]  902 	ld	de, #_Poodle2_map
    000003BD 19               [ 8]  903 	add	hl, de
    000003BE 7E               [ 8]  904 	ld	a, (hl)
    000003BF 47               [ 4]  905 	ld	b, a
                                    906 ;dog_sprite2.h:88: if (tile_id != 0) {
    000003C0 B7               [ 4]  907 	or	a, a
    000003C1 28 60            [12]  908 	jr	Z, 00121$
                                    909 ;dog_sprite2.h:89: uint8_t sprite_x = dog_x + (col * 8);
    000003C3 F8 08            [12]  910 	ldhl	sp,	#8
    000003C5 7E               [ 8]  911 	ld	a, (hl)
    000003C6 87               [ 4]  912 	add	a, a
    000003C7 87               [ 4]  913 	add	a, a
    000003C8 87               [ 4]  914 	add	a, a
    000003C9 C6 19            [ 8]  915 	add	a, #0x19
    000003CB F8 02            [12]  916 	ldhl	sp,	#2
                                    917 ;dog_sprite2.h:90: uint8_t sprite_y = dog_y + (row * 8);
    000003CD 22               [ 8]  918 	ld	(hl+), a
    000003CE 79               [ 4]  919 	ld	a, c
    000003CF 87               [ 4]  920 	add	a, a
    000003D0 87               [ 4]  921 	add	a, a
    000003D1 87               [ 4]  922 	add	a, a
    000003D2 C6 19            [ 8]  923 	add	a, #0x19
    000003D4 77               [ 8]  924 	ld	(hl), a
                                    925 ;dog_sprite2.h:92: set_sprite_tile(sprite_index, tile_id + poodle_selection.tile_data_offset);
    000003D5 FArF1r00         [16]  926 	ld	a, (#(_poodle_selection + 1) + 0)
    000003D8 80               [ 4]  927 	add	a, b
    000003D9 4F               [ 4]  928 	ld	c, a
                                    929 ;c:\gbdk\include\gb\gb.h:1887: shadow_OAM[nb].tile=tile;
    000003DA 11r00r00         [12]  930 	ld	de, #_shadow_OAM+0
    000003DD F8 07            [12]  931 	ldhl	sp,	#7
    000003DF 46               [ 8]  932 	ld	b, (hl)
    000003E0 AF               [ 4]  933 	xor	a, a
    000003E1 CB 20            [ 8]  934 	sla	b
    000003E3 8F               [ 4]  935 	adc	a, a
    000003E4 CB 20            [ 8]  936 	sla	b
    000003E6 8F               [ 4]  937 	adc	a, a
    000003E7 F8 00            [12]  938 	ldhl	sp,	#0
    000003E9 70               [ 8]  939 	ld	(hl), b
    000003EA 23               [ 8]  940 	inc	hl
    000003EB 77               [ 8]  941 	ld	(hl), a
    000003EC E1               [12]  942 	pop	hl
    000003ED E5               [16]  943 	push	hl
    000003EE 19               [ 8]  944 	add	hl, de
    000003EF 23               [ 8]  945 	inc	hl
    000003F0 23               [ 8]  946 	inc	hl
    000003F1 5D               [ 4]  947 	ld	e, l
    000003F2 54               [ 4]  948 	ld	d, h
    000003F3 79               [ 4]  949 	ld	a, c
    000003F4 12               [ 8]  950 	ld	(de), a
                                    951 ;c:\gbdk\include\gb\gb.h:1973: OAM_item_t * itm = &shadow_OAM[nb];
    000003F5 11r00r00         [12]  952 	ld	de, #_shadow_OAM
    000003F8 E1               [12]  953 	pop	hl
    000003F9 E5               [16]  954 	push	hl
    000003FA 19               [ 8]  955 	add	hl, de
    000003FB E5               [16]  956 	push	hl
    000003FC 7D               [ 4]  957 	ld	a, l
    000003FD F8 06            [12]  958 	ldhl	sp,	#6
    000003FF 77               [ 8]  959 	ld	(hl), a
    00000400 E1               [12]  960 	pop	hl
    00000401 7C               [ 4]  961 	ld	a, h
    00000402 F8 05            [12]  962 	ldhl	sp,	#5
                                    963 ;c:\gbdk\include\gb\gb.h:1974: itm->y=y, itm->x=x;
    00000404 32               [ 8]  964 	ld	(hl-), a
    00000405 2A               [ 8]  965 	ld	a, (hl+)
    00000406 5F               [ 4]  966 	ld	e, a
    00000407 3A               [ 8]  967 	ld	a, (hl-)
    00000408 2B               [ 8]  968 	dec	hl
    00000409 57               [ 4]  969 	ld	d, a
    0000040A 2A               [ 8]  970 	ld	a, (hl+)
    0000040B 12               [ 8]  971 	ld	(de), a
    0000040C 2A               [ 8]  972 	ld	a, (hl+)
    0000040D 5F               [ 4]  973 	ld	e, a
    0000040E 56               [ 8]  974 	ld	d, (hl)
    0000040F 6B               [ 4]  975 	ld	l, e
    00000410 62               [ 4]  976 	ld	h, d
    00000411 23               [ 8]  977 	inc	hl
    00000412 33               [ 8]  978 	inc	sp
    00000413 33               [ 8]  979 	inc	sp
    00000414 5D               [ 4]  980 	ld	e, l
    00000415 54               [ 4]  981 	ld	d, h
    00000416 D5               [16]  982 	push	de
    00000417 F8 02            [12]  983 	ldhl	sp,	#2
    00000419 7E               [ 8]  984 	ld	a, (hl)
    0000041A 12               [ 8]  985 	ld	(de), a
                                    986 ;dog_sprite2.h:95: sprite_index++;
    0000041B F8 07            [12]  987 	ldhl	sp,	#7
    0000041D 34               [12]  988 	inc	(hl)
                                    989 ;dog_sprite2.h:97: if (sprite_index >= 40) break;
    0000041E 7E               [ 8]  990 	ld	a, (hl)
    0000041F D6 28            [ 8]  991 	sub	a, #0x28
    00000421 30 06            [12]  992 	jr	NC, 00137$
    00000423                        993 00121$:
                                    994 ;dog_sprite2.h:85: for (uint8_t col = 0; col < 5; col++) {
    00000423 F8 08            [12]  995 	ldhl	sp,	#8
    00000425 34               [12]  996 	inc	(hl)
    00000426 C3rA6r03         [16]  997 	jp	00120$
    00000429                        998 00137$:
    00000429 F8 07            [12]  999 	ldhl	sp,	#7
    0000042B 4E               [ 8] 1000 	ld	c, (hl)
                                   1001 ;dog_sprite2.h:100: if (sprite_index >= 40) break;
    0000042C 7E               [ 8] 1002 	ld	a, (hl)
    0000042D D6 28            [ 8] 1003 	sub	a, #0x28
    0000042F 30 05            [12] 1004 	jr	NC, 00111$
                                   1005 ;dog_sprite2.h:84: for (uint8_t row = 0; row < 5; row++) {
    00000431 2B               [ 8] 1006 	dec	hl
    00000432 34               [12] 1007 	inc	(hl)
    00000433 C3r99r03         [16] 1008 	jp	00123$
    00000436                       1009 00111$:
                                   1010 ;dog_sprite2.h:103: poodle_selection.num_sprites_used = sprite_index - poodle_selection.sprite_start_index;
    00000436 21rF0r00         [12] 1011 	ld	hl, #_poodle_selection
    00000439 79               [ 4] 1012 	ld	a, c
    0000043A 96               [ 8] 1013 	sub	a, (hl)
    0000043B 21rF2r00         [12] 1014 	ld	hl, #(_poodle_selection + 2)
                                   1015 ;dog_sprite2.h:104: poodle_selection.is_active = 1;
    0000043E 22               [ 8] 1016 	ld	(hl+), a
    0000043F 36 01            [12] 1017 	ld	(hl), #0x01
                                   1018 ;dog_sprite2.h:106: SHOW_SPRITES;
    00000441 F0r00            [12] 1019 	ldh	a, (_LCDC_REG + 0)
    00000443 F6 02            [ 8] 1020 	or	a, #0x02
    00000445 E0r00            [12] 1021 	ldh	(_LCDC_REG + 0), a
                                   1022 ;dog_sprite2.h:107: }
    00000447 E8 09            [16] 1023 	add	sp, #9
    00000449 C9               [16] 1024 	ret
                                   1025 ;main.c:12: void show_selection_menu()
                                   1026 ;	---------------------------------
                                   1027 ; Function show_selection_menu
                                   1028 ; ---------------------------------
    0000044A                       1029 _show_selection_menu::
                                   1030 ;main.c:16: set_bkg_data(0, 216, background_final_tiles);
    0000044A 11r00r00         [12] 1031 	ld	de, #_background_final_tiles
    0000044D D5               [16] 1032 	push	de
    0000044E 21 00 D8         [12] 1033 	ld	hl, #0xd800
    00000451 E5               [16] 1034 	push	hl
    00000452 CDr00r00         [24] 1035 	call	_set_bkg_data
    00000455 E8 04            [16] 1036 	add	sp, #4
                                   1037 ;main.c:17: set_bkg_tiles(0, 0, 20, 18, background_final_map);
    00000457 11r00r00         [12] 1038 	ld	de, #_background_final_map
    0000045A D5               [16] 1039 	push	de
    0000045B 21 14 12         [12] 1040 	ld	hl, #0x1214
    0000045E E5               [16] 1041 	push	hl
    0000045F AF               [ 4] 1042 	xor	a, a
    00000460 0F               [ 4] 1043 	rrca
    00000461 F5               [16] 1044 	push	af
    00000462 CDr00r00         [24] 1045 	call	_set_bkg_tiles
    00000465 E8 06            [16] 1046 	add	sp, #6
                                   1047 ;main.c:19: SHOW_BKG;
    00000467 F0r00            [12] 1048 	ldh	a, (_LCDC_REG + 0)
    00000469 F6 01            [ 8] 1049 	or	a, #0x01
    0000046B E0r00            [12] 1050 	ldh	(_LCDC_REG + 0), a
                                   1051 ;main.c:20: DISPLAY_ON;
    0000046D F0r00            [12] 1052 	ldh	a, (_LCDC_REG + 0)
    0000046F F6 80            [ 8] 1053 	or	a, #0x80
    00000471 E0r00            [12] 1054 	ldh	(_LCDC_REG + 0), a
                                   1055 ;main.c:38: }
    00000473 C9               [16] 1056 	ret
                                   1057 ;main.c:96: void main()
                                   1058 ;	---------------------------------
                                   1059 ; Function main
                                   1060 ; ---------------------------------
    00000474                       1061 _main::
                                   1062 ;main.c:98: DISPLAY_ON;
    00000474 F0r00            [12] 1063 	ldh	a, (_LCDC_REG + 0)
    00000476 F6 80            [ 8] 1064 	or	a, #0x80
    00000478 E0r00            [12] 1065 	ldh	(_LCDC_REG + 0), a
                                   1066 ;main.c:100: show_selection_menu();
                                   1067 ;main.c:283: }
    0000047A C3r4Ar04         [16] 1068 	jp	_show_selection_menu
                                   1069 	.area _CODE
                                   1070 	.area _INITIALIZER
    00000000                       1071 __xinit__PoodleSprite:
    00000000 00                    1072 	.db #0x00	; 0
    00000001 00                    1073 	.db #0x00	; 0
    00000002 07                    1074 	.db #0x07	; 7
    00000003 07                    1075 	.db #0x07	; 7
    00000004 18                    1076 	.db #0x18	; 24
    00000005 1F                    1077 	.db #0x1f	; 31
    00000006 3C                    1078 	.db #0x3c	; 60
    00000007 23                    1079 	.db #0x23	; 35
    00000008 7B                    1080 	.db #0x7b	; 123
    00000009 54                    1081 	.db #0x54	; 84	'T'
    0000000A F7                    1082 	.db #0xf7	; 247
    0000000B 9C                    1083 	.db #0x9c	; 156
    0000000C F7                    1084 	.db #0xf7	; 247
    0000000D 98                    1085 	.db #0x98	; 152
    0000000E 6F                    1086 	.db #0x6f	; 111	'o'
    0000000F 70                    1087 	.db #0x70	; 112	'p'
    00000010 00                    1088 	.db #0x00	; 0
    00000011 00                    1089 	.db #0x00	; 0
    00000012 E0                    1090 	.db #0xe0	; 224
    00000013 E0                    1091 	.db #0xe0	; 224
    00000014 18                    1092 	.db #0x18	; 24
    00000015 F8                    1093 	.db #0xf8	; 248
    00000016 3C                    1094 	.db #0x3c	; 60
    00000017 C4                    1095 	.db #0xc4	; 196
    00000018 DE                    1096 	.db #0xde	; 222
    00000019 2A                    1097 	.db #0x2a	; 42
    0000001A EF                    1098 	.db #0xef	; 239
    0000001B 39                    1099 	.db #0x39	; 57	'9'
    0000001C EF                    1100 	.db #0xef	; 239
    0000001D 19                    1101 	.db #0x19	; 25
    0000001E F6                    1102 	.db #0xf6	; 246
    0000001F 0E                    1103 	.db #0x0e	; 14
    00000020 2F                    1104 	.db #0x2f	; 47
    00000021 35                    1105 	.db #0x35	; 53	'5'
    00000022 17                    1106 	.db #0x17	; 23
    00000023 1A                    1107 	.db #0x1a	; 26
    00000024 2B                    1108 	.db #0x2b	; 43
    00000025 34                    1109 	.db #0x34	; 52	'4'
    00000026 2C                    1110 	.db #0x2c	; 44
    00000027 33                    1111 	.db #0x33	; 51	'3'
    00000028 5F                    1112 	.db #0x5f	; 95
    00000029 60                    1113 	.db #0x60	; 96
    0000002A 5F                    1114 	.db #0x5f	; 95
    0000002B 60                    1115 	.db #0x60	; 96
    0000002C 5F                    1116 	.db #0x5f	; 95
    0000002D 61                    1117 	.db #0x61	; 97	'a'
    0000002E 2F                    1118 	.db #0x2f	; 47
    0000002F 31                    1119 	.db #0x31	; 49	'1'
    00000030 F4                    1120 	.db #0xf4	; 244
    00000031 AC                    1121 	.db #0xac	; 172
    00000032 E8                    1122 	.db #0xe8	; 232
    00000033 58                    1123 	.db #0x58	; 88	'X'
    00000034 D4                    1124 	.db #0xd4	; 212
    00000035 2C                    1125 	.db #0x2c	; 44
    00000036 34                    1126 	.db #0x34	; 52	'4'
    00000037 CC                    1127 	.db #0xcc	; 204
    00000038 F2                    1128 	.db #0xf2	; 242
    00000039 0E                    1129 	.db #0x0e	; 14
    0000003A FA                    1130 	.db #0xfa	; 250
    0000003B 06                    1131 	.db #0x06	; 6
    0000003C FA                    1132 	.db #0xfa	; 250
    0000003D 86                    1133 	.db #0x86	; 134
    0000003E F5                    1134 	.db #0xf5	; 245
    0000003F 8F                    1135 	.db #0x8f	; 143
    00000040 F9                    1136 	.db #0xf9	; 249
    00000041 8F                    1137 	.db #0x8f	; 143
    00000042 72                    1138 	.db #0x72	; 114	'r'
    00000043 7E                    1139 	.db #0x7e	; 126
    00000044 0C                    1140 	.db #0x0c	; 12
    00000045 0C                    1141 	.db #0x0c	; 12
    00000046 00                    1142 	.db #0x00	; 0
    00000047 00                    1143 	.db #0x00	; 0
    00000048 00                    1144 	.db #0x00	; 0
    00000049 00                    1145 	.db #0x00	; 0
    0000004A 00                    1146 	.db #0x00	; 0
    0000004B 00                    1147 	.db #0x00	; 0
    0000004C 00                    1148 	.db #0x00	; 0
    0000004D 00                    1149 	.db #0x00	; 0
    0000004E 00                    1150 	.db #0x00	; 0
    0000004F 00                    1151 	.db #0x00	; 0
    00000050 11                    1152 	.db #0x11	; 17
    00000051 1F                    1153 	.db #0x1f	; 31
    00000052 0E                    1154 	.db #0x0e	; 14
    00000053 0E                    1155 	.db #0x0e	; 14
    00000054 00                    1156 	.db #0x00	; 0
    00000055 00                    1157 	.db #0x00	; 0
    00000056 00                    1158 	.db #0x00	; 0
    00000057 00                    1159 	.db #0x00	; 0
    00000058 00                    1160 	.db #0x00	; 0
    00000059 00                    1161 	.db #0x00	; 0
    0000005A 00                    1162 	.db #0x00	; 0
    0000005B 00                    1163 	.db #0x00	; 0
    0000005C 00                    1164 	.db #0x00	; 0
    0000005D 00                    1165 	.db #0x00	; 0
    0000005E 00                    1166 	.db #0x00	; 0
    0000005F 00                    1167 	.db #0x00	; 0
    00000060                       1168 __xinit__CatSprite:
    00000060 30                    1169 	.db #0x30	; 48	'0'
    00000061 30                    1170 	.db #0x30	; 48	'0'
    00000062 4B                    1171 	.db #0x4b	; 75	'K'
    00000063 7B                    1172 	.db #0x7b	; 123
    00000064 54                    1173 	.db #0x54	; 84	'T'
    00000065 6F                    1174 	.db #0x6f	; 111	'o'
    00000066 50                    1175 	.db #0x50	; 80	'P'
    00000067 6F                    1176 	.db #0x6f	; 111	'o'
    00000068 40                    1177 	.db #0x40	; 64
    00000069 7F                    1178 	.db #0x7f	; 127
    0000006A 40                    1179 	.db #0x40	; 64
    0000006B 7F                    1180 	.db #0x7f	; 127
    0000006C 20                    1181 	.db #0x20	; 32
    0000006D 3F                    1182 	.db #0x3f	; 63
    0000006E 46                    1183 	.db #0x46	; 70	'F'
    0000006F 7F                    1184 	.db #0x7f	; 127
    00000070 01                    1185 	.db #0x01	; 1
    00000071 01                    1186 	.db #0x01	; 1
    00000072 FA                    1187 	.db #0xfa	; 250
    00000073 FB                    1188 	.db #0xfb	; 251
    00000074 05                    1189 	.db #0x05	; 5
    00000075 FE                    1190 	.db #0xfe	; 254
    00000076 41                    1191 	.db #0x41	; 65	'A'
    00000077 BE                    1192 	.db #0xbe	; 190
    00000078 40                    1193 	.db #0x40	; 64
    00000079 BF                    1194 	.db #0xbf	; 191
    0000007A 40                    1195 	.db #0x40	; 64
    0000007B BF                    1196 	.db #0xbf	; 191
    0000007C E0                    1197 	.db #0xe0	; 224
    0000007D 1F                    1198 	.db #0x1f	; 31
    0000007E EC                    1199 	.db #0xec	; 236
    0000007F 1F                    1200 	.db #0x1f	; 31
    00000080 80                    1201 	.db #0x80	; 128
    00000081 80                    1202 	.db #0x80	; 128
    00000082 40                    1203 	.db #0x40	; 64
    00000083 C0                    1204 	.db #0xc0	; 192
    00000084 40                    1205 	.db #0x40	; 64
    00000085 C0                    1206 	.db #0xc0	; 192
    00000086 40                    1207 	.db #0x40	; 64
    00000087 C0                    1208 	.db #0xc0	; 192
    00000088 40                    1209 	.db #0x40	; 64
    00000089 C0                    1210 	.db #0xc0	; 192
    0000008A 80                    1211 	.db #0x80	; 128
    0000008B 80                    1212 	.db #0x80	; 128
    0000008C 40                    1213 	.db #0x40	; 64
    0000008D C0                    1214 	.db #0xc0	; 192
    0000008E 40                    1215 	.db #0x40	; 64
    0000008F C0                    1216 	.db #0xc0	; 192
    00000090 E6                    1217 	.db #0xe6	; 230
    00000091 FF                    1218 	.db #0xff	; 255
    00000092 59                    1219 	.db #0x59	; 89	'Y'
    00000093 66                    1220 	.db #0x66	; 102	'f'
    00000094 E3                    1221 	.db #0xe3	; 227
    00000095 FC                    1222 	.db #0xfc	; 252
    00000096 43                    1223 	.db #0x43	; 67	'C'
    00000097 7C                    1224 	.db #0x7c	; 124
    00000098 21                    1225 	.db #0x21	; 33
    00000099 3E                    1226 	.db #0x3e	; 62
    0000009A 4F                    1227 	.db #0x4f	; 79	'O'
    0000009B 7E                    1228 	.db #0x7e	; 126
    0000009C 5F                    1229 	.db #0x5f	; 95
    0000009D 71                    1230 	.db #0x71	; 113	'q'
    0000009E 5F                    1231 	.db #0x5f	; 95
    0000009F 71                    1232 	.db #0x71	; 113	'q'
    000000A0 EC                    1233 	.db #0xec	; 236
    000000A1 1F                    1234 	.db #0x1f	; 31
    000000A2 F3                    1235 	.db #0xf3	; 243
    000000A3 EC                    1236 	.db #0xec	; 236
    000000A4 F8                    1237 	.db #0xf8	; 248
    000000A5 47                    1238 	.db #0x47	; 71	'G'
    000000A6 F8                    1239 	.db #0xf8	; 248
    000000A7 07                    1240 	.db #0x07	; 7
    000000A8 F0                    1241 	.db #0xf0	; 240
    000000A9 0F                    1242 	.db #0x0f	; 15
    000000AA FE                    1243 	.db #0xfe	; 254
    000000AB 0F                    1244 	.db #0x0f	; 15
    000000AC FF                    1245 	.db #0xff	; 255
    000000AD 11                    1246 	.db #0x11	; 17
    000000AE FF                    1247 	.db #0xff	; 255
    000000AF 11                    1248 	.db #0x11	; 17
    000000B0 E0                    1249 	.db #0xe0	; 224
    000000B1 E0                    1250 	.db #0xe0	; 224
    000000B2 40                    1251 	.db #0x40	; 64
    000000B3 C0                    1252 	.db #0xc0	; 192
    000000B4 E0                    1253 	.db #0xe0	; 224
    000000B5 E0                    1254 	.db #0xe0	; 224
    000000B6 40                    1255 	.db #0x40	; 64
    000000B7 C0                    1256 	.db #0xc0	; 192
    000000B8 80                    1257 	.db #0x80	; 128
    000000B9 80                    1258 	.db #0x80	; 128
    000000BA 40                    1259 	.db #0x40	; 64
    000000BB C0                    1260 	.db #0xc0	; 192
    000000BC 40                    1261 	.db #0x40	; 64
    000000BD C0                    1262 	.db #0xc0	; 192
    000000BE 40                    1263 	.db #0x40	; 64
    000000BF C0                    1264 	.db #0xc0	; 192
    000000C0 8F                    1265 	.db #0x8f	; 143
    000000C1 FE                    1266 	.db #0xfe	; 254
    000000C2 87                    1267 	.db #0x87	; 135
    000000C3 F8                    1268 	.db #0xf8	; 248
    000000C4 87                    1269 	.db #0x87	; 135
    000000C5 F8                    1270 	.db #0xf8	; 248
    000000C6 83                    1271 	.db #0x83	; 131
    000000C7 FC                    1272 	.db #0xfc	; 252
    000000C8 8F                    1273 	.db #0x8f	; 143
    000000C9 FE                    1274 	.db #0xfe	; 254
    000000CA 5F                    1275 	.db #0x5f	; 95
    000000CB 71                    1276 	.db #0x71	; 113	'q'
    000000CC 3F                    1277 	.db #0x3f	; 63
    000000CD 31                    1278 	.db #0x31	; 49	'1'
    000000CE 0E                    1279 	.db #0x0e	; 14
    000000CF 0E                    1280 	.db #0x0e	; 14
    000000D0 FE                    1281 	.db #0xfe	; 254
    000000D1 0F                    1282 	.db #0x0f	; 15
    000000D2 FC                    1283 	.db #0xfc	; 252
    000000D3 03                    1284 	.db #0x03	; 3
    000000D4 FC                    1285 	.db #0xfc	; 252
    000000D5 03                    1286 	.db #0x03	; 3
    000000D6 F8                    1287 	.db #0xf8	; 248
    000000D7 07                    1288 	.db #0x07	; 7
    000000D8 FE                    1289 	.db #0xfe	; 254
    000000D9 0F                    1290 	.db #0x0f	; 15
    000000DA FF                    1291 	.db #0xff	; 255
    000000DB 11                    1292 	.db #0x11	; 17
    000000DC FF                    1293 	.db #0xff	; 255
    000000DD F1                    1294 	.db #0xf1	; 241
    000000DE 0E                    1295 	.db #0x0e	; 14
    000000DF 0E                    1296 	.db #0x0e	; 14
    000000E0 26                    1297 	.db #0x26	; 38
    000000E1 E6                    1298 	.db #0xe6	; 230
    000000E2 2F                    1299 	.db #0x2f	; 47
    000000E3 E9                    1300 	.db #0xe9	; 233
    000000E4 2E                    1301 	.db #0x2e	; 46
    000000E5 EA                    1302 	.db #0xea	; 234
    000000E6 34                    1303 	.db #0x34	; 52	'4'
    000000E7 FC                    1304 	.db #0xfc	; 252
    000000E8 24                    1305 	.db #0x24	; 36
    000000E9 FC                    1306 	.db #0xfc	; 252
    000000EA 78                    1307 	.db #0x78	; 120	'x'
    000000EB C8                    1308 	.db #0xc8	; 200
    000000EC B0                    1309 	.db #0xb0	; 176
    000000ED B0                    1310 	.db #0xb0	; 176
    000000EE 00                    1311 	.db #0x00	; 0
    000000EF 00                    1312 	.db #0x00	; 0
    000000F0                       1313 __xinit__poodle_selection:
    000000F0 0A                    1314 	.db #0x0a	; 10
    000000F1 14                    1315 	.db #0x14	; 20
    000000F2 00                    1316 	.db #0x00	; 0
    000000F3 00                    1317 	.db #0x00	; 0
    000000F4                       1318 __xinit__poodle_main:
    000000F4 1E                    1319 	.db #0x1e	; 30
    000000F5 28                    1320 	.db #0x28	; 40
    000000F6 00                    1321 	.db #0x00	; 0
    000000F7 00                    1322 	.db #0x00	; 0
    000000F8                       1323 __xinit__selected_pet:
    000000F8 00                    1324 	.db #0x00	; 0
                                   1325 	.area _CABS (ABS)
